target datalayout = "e-m:e-p270:32:32-p271:32:32-p272:64:64-i64:64-i128:128-f80:128-n8:16:32:64-S128"
target triple = "x86_64-unknown-linux-gnu"

%class.app = type { %class.expr, ptr, i32, [0 x ptr] }
%class.expr = type { %class.ast }
%class.ast = type { i32, i24, i32, i32 }
%class.symbol = type { ptr }
%class.decl = type { %class.ast, %class.symbol, ptr }
%class.vector.29 = type { ptr }
%struct.func_decl_info = type <{ %class.decl_info.base, i16, [5 x i8] }>
%class.decl_info.base = type <{ i32, i32, %class.vector.29, i8 }>

; Function Attrs: mustprogress nounwind uwtable
define linkonce_odr hidden noundef zeroext i1 @_ZNK14func_decl_info14is_commutativeEv(ptr noundef nonnull align 8 dereferenceable(19) %this) #4 comdat align 2 {
entry:
  %this.addr = alloca ptr, align 8
  store ptr %this, ptr %this.addr, align 8
  %this1 = load ptr, ptr %this.addr, align 8
  %m_commutative = getelementptr inbounds %struct.func_decl_info, ptr %this1, i32 0, i32 1
  %bf.load = load i16, ptr %m_commutative, align 1
  %bf.lshr = lshr i16 %bf.load, 3
  %bf.clear = and i16 %bf.lshr, 1
  %bf.cast = trunc i16 %bf.clear to i1
  ret i1 %bf.cast
}

; Function Attrs: mustprogress nounwind uwtable
define linkonce_odr hidden noundef ptr @_ZNK9func_decl8get_infoEv(ptr noundef nonnull align 8 dereferenceable(48) %this) #4 comdat align 2 {
entry:
  %this.addr = alloca ptr, align 8
  store ptr %this, ptr %this.addr, align 8
  %this1 = load ptr, ptr %this.addr, align 8
  %m_info = getelementptr inbounds %class.decl, ptr %this1, i32 0, i32 2
  %0 = load ptr, ptr %m_info, align 8
  ret ptr %0
}

; Function Attrs: mustprogress nounwind uwtable
define linkonce_odr hidden noundef i32 @_ZNK3ast8get_kindEv(ptr noundef nonnull align 4 dereferenceable(16) %this) #4 comdat align 2 {
entry:
  %this.addr = alloca ptr, align 8
  store ptr %this, ptr %this.addr, align 8
  %this1 = load ptr, ptr %this.addr, align 8
  %m_kind = getelementptr inbounds %class.ast, ptr %this1, i32 0, i32 1
  %bf.load = load i32, ptr %m_kind, align 4
  %bf.clear = and i32 %bf.load, 65535
  ret i32 %bf.clear
}

; Function Attrs: mustprogress nounwind uwtable
define linkonce_odr hidden noundef ptr @_ZNK3app7get_argEj(ptr noundef nonnull align 8 dereferenceable(32) %this, i32 noundef %idx) #4 comdat align 2 {
entry:
  %this.addr = alloca ptr, align 8
  %idx.addr = alloca i32, align 4
  store ptr %this, ptr %this.addr, align 8
  store i32 %idx, ptr %idx.addr, align 4
  %this1 = load ptr, ptr %this.addr, align 8
  %m_args = getelementptr inbounds %class.app, ptr %this1, i32 0, i32 3
  %0 = load i32, ptr %idx.addr, align 4
  %idxprom = zext i32 %0 to i64
  %arrayidx = getelementptr inbounds [0 x ptr], ptr %m_args, i64 0, i64 %idxprom
  %1 = load ptr, ptr %arrayidx, align 8
  ret ptr %1
}

; Function Attrs: mustprogress nounwind uwtable
define linkonce_odr hidden noundef i32 @_ZNK3app12get_num_argsEv(ptr noundef nonnull align 8 dereferenceable(32) %this) #4 comdat align 2 {
entry:
  %this.addr = alloca ptr, align 8
  store ptr %this, ptr %this.addr, align 8
  %this1 = load ptr, ptr %this.addr, align 8
  %m_num_args = getelementptr inbounds %class.app, ptr %this1, i32 0, i32 2
  %0 = load i32, ptr %m_num_args, align 8
  ret i32 %0
}

; Function Attrs: mustprogress uwtable
define linkonce_odr hidden noundef zeroext i1 @_ZNK9func_decl14is_commutativeEv(ptr noundef nonnull align 8 dereferenceable(48) %this) #5 comdat align 2 {
entry:
  %this.addr = alloca ptr, align 8
  store ptr %this, ptr %this.addr, align 8
  %this1 = load ptr, ptr %this.addr, align 8
  %call = call noundef ptr @_ZNK9func_decl8get_infoEv(ptr noundef nonnull align 8 dereferenceable(48) %this1)
  %cmp = icmp ne ptr %call, null
  br i1 %cmp, label %land.rhs, label %land.end

land.rhs:                                         ; preds = %entry
  %call2 = call noundef ptr @_ZNK9func_decl8get_infoEv(ptr noundef nonnull align 8 dereferenceable(48) %this1)
  %call3 = call noundef zeroext i1 @_ZNK14func_decl_info14is_commutativeEv(ptr noundef nonnull align 8 dereferenceable(19) %call2)
  br label %land.end

land.end:                                         ; preds = %land.rhs, %entry
  %0 = phi i1 [ false, %entry ], [ %call3, %land.rhs ]
  ret i1 %0
}

; Function Attrs: mustprogress nounwind uwtable
define linkonce_odr hidden noundef ptr @_ZNK3app8get_declEv(ptr noundef nonnull align 8 dereferenceable(32) %this) #4 comdat align 2 {
entry:
  %this.addr = alloca ptr, align 8
  store ptr %this, ptr %this.addr, align 8
  %this1 = load ptr, ptr %this.addr, align 8
  %m_decl = getelementptr inbounds %class.app, ptr %this1, i32 0, i32 1
  %0 = load ptr, ptr %m_decl, align 8
  ret ptr %0
}

; Function Attrs: mustprogress nounwind uwtable
define linkonce_odr hidden noundef ptr @_Z6to_appP3ast(ptr noundef %n) #4 comdat {
entry:
  %n.addr = alloca ptr, align 8
  store ptr %n, ptr %n.addr, align 8
  %0 = load ptr, ptr %n.addr, align 8
  ret ptr %0
}

; Function Attrs: mustprogress nounwind uwtable
define linkonce_odr hidden noundef zeroext i1 @_Z6is_appPK3ast(ptr noundef %n) #4 comdat {
entry:
  %n.addr = alloca ptr, align 8
  store ptr %n, ptr %n.addr, align 8
  %0 = load ptr, ptr %n.addr, align 8
  %call = call noundef i32 @_ZNK3ast8get_kindEv(ptr noundef nonnull align 4 dereferenceable(16) %0)
  %cmp = icmp eq i32 %call, 0
  ret i1 %cmp
}

; Function Attrs: mustprogress uwtable
define hidden noundef zeroext i1 @_ZN7tseitin14theory_checker5equivEP4exprS2_(ptr noundef nonnull align 8 dereferenceable(304) %this, ptr noundef %a, ptr noundef %b) #5 align 2 {
entry:
  %retval = alloca i1, align 1
  %this.addr = alloca ptr, align 8
  %a.addr = alloca ptr, align 8
  %b.addr = alloca ptr, align 8
  store ptr %this, ptr %this.addr, align 8
  store ptr %a, ptr %a.addr, align 8
  store ptr %b, ptr %b.addr, align 8
  %0 = load ptr, ptr %a.addr, align 8
  %1 = load ptr, ptr %b.addr, align 8
  %cmp = icmp eq ptr %0, %1
  br i1 %cmp, label %if.then, label %if.end

if.then:                                          ; preds = %entry
  store i1 true, ptr %retval, align 1
  br label %return

if.end:                                           ; preds = %entry
  %2 = load ptr, ptr %a.addr, align 8
  %call = call noundef zeroext i1 @_Z6is_appPK3ast(ptr noundef %2)
  br i1 %call, label %lor.lhs.false, label %if.then3

lor.lhs.false:                                    ; preds = %if.end
  %3 = load ptr, ptr %b.addr, align 8
  %call2 = call noundef zeroext i1 @_Z6is_appPK3ast(ptr noundef %3)
  br i1 %call2, label %if.end4, label %if.then3

if.then3:                                         ; preds = %lor.lhs.false, %if.end
  store i1 false, ptr %retval, align 1
  br label %return

if.end4:                                          ; preds = %lor.lhs.false
  %4 = load ptr, ptr %a.addr, align 8
  %call5 = call noundef ptr @_Z6to_appP3ast(ptr noundef %4)
  %call6 = call noundef ptr @_ZNK3app8get_declEv(ptr noundef nonnull align 8 dereferenceable(32) %call5)
  %5 = load ptr, ptr %b.addr, align 8
  %call7 = call noundef ptr @_Z6to_appP3ast(ptr noundef %5)
  %call8 = call noundef ptr @_ZNK3app8get_declEv(ptr noundef nonnull align 8 dereferenceable(32) %call7)
  %cmp9 = icmp ne ptr %call6, %call8
  br i1 %cmp9, label %if.then10, label %if.end11

if.then10:                                        ; preds = %if.end4
  store i1 false, ptr %retval, align 1
  br label %return

if.end11:                                         ; preds = %if.end4
  %6 = load ptr, ptr %a.addr, align 8
  %call12 = call noundef ptr @_Z6to_appP3ast(ptr noundef %6)
  %call13 = call noundef ptr @_ZNK3app8get_declEv(ptr noundef nonnull align 8 dereferenceable(32) %call12)
  %call14 = call noundef zeroext i1 @_ZNK9func_decl14is_commutativeEv(ptr noundef nonnull align 8 dereferenceable(48) %call13)
  br i1 %call14, label %if.end16, label %if.then15

if.then15:                                        ; preds = %if.end11
  store i1 false, ptr %retval, align 1
  br label %return

if.end16:                                         ; preds = %if.end11
  %7 = load ptr, ptr %a.addr, align 8
  %call17 = call noundef ptr @_Z6to_appP3ast(ptr noundef %7)
  %call18 = call noundef i32 @_ZNK3app12get_num_argsEv(ptr noundef nonnull align 8 dereferenceable(32) %call17)
  %cmp19 = icmp ne i32 %call18, 2
  br i1 %cmp19, label %if.then20, label %if.end21

if.then20:                                        ; preds = %if.end16
  store i1 false, ptr %retval, align 1
  br label %return

if.end21:                                         ; preds = %if.end16
  %8 = load ptr, ptr %a.addr, align 8
  %call22 = call noundef ptr @_Z6to_appP3ast(ptr noundef %8)
  %call23 = call noundef ptr @_ZNK3app7get_argEj(ptr noundef nonnull align 8 dereferenceable(32) %call22, i32 noundef 0)
  %9 = load ptr, ptr %b.addr, align 8
  %call24 = call noundef ptr @_Z6to_appP3ast(ptr noundef %9)
  %call25 = call noundef ptr @_ZNK3app7get_argEj(ptr noundef nonnull align 8 dereferenceable(32) %call24, i32 noundef 1)
  %cmp26 = icmp eq ptr %call23, %call25
  br i1 %cmp26, label %land.rhs, label %land.end

land.rhs:                                         ; preds = %if.end21
  %10 = load ptr, ptr %a.addr, align 8
  %call27 = call noundef ptr @_Z6to_appP3ast(ptr noundef %10)
  %call28 = call noundef ptr @_ZNK3app7get_argEj(ptr noundef nonnull align 8 dereferenceable(32) %call27, i32 noundef 1)
  %11 = load ptr, ptr %b.addr, align 8
  %call29 = call noundef ptr @_Z6to_appP3ast(ptr noundef %11)
  %call30 = call noundef ptr @_ZNK3app7get_argEj(ptr noundef nonnull align 8 dereferenceable(32) %call29, i32 noundef 0)
  %cmp31 = icmp eq ptr %call28, %call30
  br label %land.end

land.end:                                         ; preds = %land.rhs, %if.end21
  %12 = phi i1 [ false, %if.end21 ], [ %cmp31, %land.rhs ]
  store i1 %12, ptr %retval, align 1
  br label %return

return:                                           ; preds = %land.end, %if.then20, %if.then15, %if.then10, %if.then3, %if.then
  %13 = load i1, ptr %retval, align 1
  ret i1 %13
}