; Function Attrs: mustprogress nofree norecurse nosync nounwind willreturn memory(read, inaccessiblemem: none) uwtable
define hidden noundef zeroext i1 @_ZN7tseitin14theory_checker5equivEP4exprS2_(ptr nocapture nonnull readnone align 8 %this, ptr noundef readonly %a, ptr noundef readonly %b) local_unnamed_addr #5 align 2 {
entry:
  %cmp = icmp eq ptr %a, %b
  br i1 %cmp, label %return, label %if.end

if.end:                                           ; preds = %entry
  %m_kind.i.i = getelementptr inbounds i8, ptr %a, i64 4
  %bf.load.i.i = load i32, ptr %m_kind.i.i, align 4
  %bf.clear.i.i = and i32 %bf.load.i.i, 65535
  %cmp.i = icmp eq i32 %bf.clear.i.i, 0
  br i1 %cmp.i, label %lor.lhs.false, label %return

lor.lhs.false:                                    ; preds = %if.end
  %m_kind.i.i11 = getelementptr inbounds i8, ptr %b, i64 4
  %bf.load.i.i12 = load i32, ptr %m_kind.i.i11, align 4
  %bf.clear.i.i13 = and i32 %bf.load.i.i12, 65535
  %cmp.i14 = icmp eq i32 %bf.clear.i.i13, 0
  br i1 %cmp.i14, label %if.end4, label %return

if.end4:                                          ; preds = %lor.lhs.false
  %m_decl.i = getelementptr inbounds i8, ptr %a, i64 16
  %0 = load ptr, ptr %m_decl.i, align 8
  %m_decl.i15 = getelementptr inbounds i8, ptr %b, i64 16
  %1 = load ptr, ptr %m_decl.i15, align 8
  %cmp9.not = icmp eq ptr %0, %1
  br i1 %cmp9.not, label %if.end11, label %return

if.end11:                                         ; preds = %if.end4
  %m_info.i.i = getelementptr inbounds i8, ptr %0, i64 24
  %2 = load ptr, ptr %m_info.i.i, align 8
  %cmp.not.i = icmp eq ptr %2, null
  br i1 %cmp.not.i, label %return, label %_ZNK9func_decl14is_commutativeEv.exit

_ZNK9func_decl14is_commutativeEv.exit:            ; preds = %if.end11
  %m_commutative.i.i = getelementptr inbounds i8, ptr %2, i64 17
  %bf.load.i.i17 = load i16, ptr %m_commutative.i.i, align 1
  %3 = and i16 %bf.load.i.i17, 8
  %bf.cast.i.i.not = icmp eq i16 %3, 0
  br i1 %bf.cast.i.i.not, label %return, label %if.end16

if.end16:                                         ; preds = %_ZNK9func_decl14is_commutativeEv.exit
  %m_num_args.i = getelementptr inbounds i8, ptr %a, i64 24
  %4 = load i32, ptr %m_num_args.i, align 8
  %cmp19.not = icmp eq i32 %4, 2
  br i1 %cmp19.not, label %if.end21, label %return

if.end21:                                         ; preds = %if.end16
  %m_args.i = getelementptr inbounds i8, ptr %a, i64 32
  %5 = load ptr, ptr %m_args.i, align 8
  %arrayidx.i = getelementptr inbounds i8, ptr %b, i64 40
  %6 = load ptr, ptr %arrayidx.i, align 8
  %cmp26 = icmp eq ptr %5, %6
  br i1 %cmp26, label %land.rhs, label %return

land.rhs:                                         ; preds = %if.end21
  %m_args.i18 = getelementptr inbounds i8, ptr %b, i64 32
  %arrayidx.i20 = getelementptr inbounds i8, ptr %a, i64 40
  %7 = load ptr, ptr %arrayidx.i20, align 8
  %8 = load ptr, ptr %m_args.i18, align 8
  %cmp31 = icmp eq ptr %7, %8
  br label %return

return:                                           ; preds = %if.end11, %if.end21, %land.rhs, %if.end16, %_ZNK9func_decl14is_commutativeEv.exit, %if.end4, %if.end, %lor.lhs.false, %entry
  %retval.0 = phi i1 [ true, %entry ], [ false, %lor.lhs.false ], [ false, %if.end ], [ false, %if.end4 ], [ false, %_ZNK9func_decl14is_commutativeEv.exit ], [ false, %if.end16 ], [ false, %if.end21 ], [ %cmp31, %land.rhs ], [ false, %if.end11 ]
  ret i1 %retval.0
}